; Function Attrs: mustprogress nofree norecurse nosync nounwind willreturn memory(read, inaccessiblemem: none) uwtable
define internal noundef i32 @"_ZNSt17_Function_handlerIFivEZN2tf8PipelineIJNS1_4PipeIZ4mainE3$_0EENS3_IZ4mainE3$_1EENS3_IZ4mainE3$_2EEEE6_buildEvEUlvE_E9_M_invokeERKSt9_Any_data"(ptr noundef nonnull readonly align 8 captures(none) dereferenceable(16) %0) #29 align 2 {
  %.val = load ptr, ptr %0, align 8, !tbaa !969
  %2 = getelementptr inbounds nuw i8, ptr %.val, i64 24
  %3 = load i64, ptr %2, align 8, !tbaa !76
  %4 = getelementptr i8, ptr %.val, i64 144
  %.val.i.i.i = load ptr, ptr %4, align 8, !tbaa !50
  %5 = getelementptr i8, ptr %.val, i64 152
  %.val1.i.i.i = load ptr, ptr %5, align 8, !tbaa !66
  %6 = ptrtoint ptr %.val1.i.i.i to i64
  %7 = ptrtoint ptr %.val.i.i.i to i64
  %8 = sub i64 %6, %7
  %9 = sdiv exact i64 %8, 96
  %10 = urem i64 %3, %9
  %11 = trunc i64 %10 to i32
  ret i32 %11
}